target datalayout = "e-m:e-p270:32:32-p271:32:32-p272:64:64-i64:64-i128:128-f80:128-n8:16:32:64-S128"
target triple = "x86_64-pc-linux-gnu"

%struct.PairHeap = type { ptr, i64, i64 }
%struct.Pair = type { i64, i64, double }

@stderr = external global ptr, align 8
@.str = private unnamed_addr constant [58 x i8] c"integer overflow when trying to allocate %zu * %zu bytes\0A\00", align 1
@.str.1 = private unnamed_addr constant [49 x i8] c"out of memory when trying to allocate %zu bytes\0A\00", align 1

; Function Attrs: inlinehint nounwind uwtable
define internal ptr @gv_realloc(ptr noundef %0, i64 noundef %1, i64 noundef %2) #3 {
  %4 = alloca ptr, align 8
  %5 = alloca ptr, align 8
  %6 = alloca i64, align 8
  %7 = alloca i64, align 8
  %8 = alloca ptr, align 8
  store ptr %0, ptr %5, align 8, !tbaa !10
  store i64 %1, ptr %6, align 8, !tbaa !11
  store i64 %2, ptr %7, align 8, !tbaa !11
  %9 = load i64, ptr %7, align 8, !tbaa !11
  %10 = icmp eq i64 %9, 0
  br i1 %10, label %11, label %13

11:                                               ; preds = %3
  %12 = load ptr, ptr %5, align 8, !tbaa !10
  call void @free(ptr noundef %12) #12
  store ptr null, ptr %4, align 8
  br label %36

13:                                               ; preds = %3
  call void @llvm.lifetime.start.p0(i64 8, ptr %8) #12
  %14 = load ptr, ptr %5, align 8, !tbaa !10
  %15 = load i64, ptr %7, align 8, !tbaa !11
  %16 = call ptr @realloc(ptr noundef %14, i64 noundef %15) #16
  store ptr %16, ptr %8, align 8, !tbaa !10
  %17 = load ptr, ptr %8, align 8, !tbaa !10
  %18 = icmp eq ptr %17, null
  br i1 %18, label %19, label %23

19:                                               ; preds = %13
  %20 = load ptr, ptr @stderr, align 8, !tbaa !45
  %21 = load i64, ptr %7, align 8, !tbaa !11
  %22 = call i32 (ptr, ptr, ...) @fprintf(ptr noundef %20, ptr noundef @.str.1, i64 noundef %21) #12
  call void @graphviz_exit(i32 noundef 1) #13
  unreachable

23:                                               ; preds = %13
  %24 = load i64, ptr %7, align 8, !tbaa !11
  %25 = load i64, ptr %6, align 8, !tbaa !11
  %26 = icmp ugt i64 %24, %25
  br i1 %26, label %27, label %34

27:                                               ; preds = %23
  %28 = load ptr, ptr %8, align 8, !tbaa !10
  %29 = load i64, ptr %6, align 8, !tbaa !11
  %30 = getelementptr inbounds nuw i8, ptr %28, i64 %29
  %31 = load i64, ptr %7, align 8, !tbaa !11
  %32 = load i64, ptr %6, align 8, !tbaa !11
  %33 = sub i64 %31, %32
  call void @llvm.memset.p0.i64(ptr align 1 %30, i8 0, i64 %33, i1 false)
  br label %34

34:                                               ; preds = %27, %23
  %35 = load ptr, ptr %8, align 8, !tbaa !10
  store ptr %35, ptr %4, align 8
  call void @llvm.lifetime.end.p0(i64 8, ptr %8) #12
  br label %36

36:                                               ; preds = %34, %11
  %37 = load ptr, ptr %4, align 8
  ret ptr %37
}

; Function Attrs: inlinehint nounwind uwtable
define internal ptr @gv_recalloc(ptr noundef %0, i64 noundef %1, i64 noundef %2, i64 noundef %3) #3 {
  %5 = alloca ptr, align 8
  %6 = alloca i64, align 8
  %7 = alloca i64, align 8
  %8 = alloca i64, align 8
  store ptr %0, ptr %5, align 8, !tbaa !10
  store i64 %1, ptr %6, align 8, !tbaa !11
  store i64 %2, ptr %7, align 8, !tbaa !11
  store i64 %3, ptr %8, align 8, !tbaa !11
  %9 = load i64, ptr %7, align 8, !tbaa !11
  %10 = load i64, ptr %8, align 8, !tbaa !11
  %11 = udiv i64 -1, %10
  %12 = icmp ugt i64 %9, %11
  br i1 %12, label %13, label %18

13:                                               ; preds = %4
  %14 = load ptr, ptr @stderr, align 8, !tbaa !45
  %15 = load i64, ptr %7, align 8, !tbaa !11
  %16 = load i64, ptr %8, align 8, !tbaa !11
  %17 = call i32 (ptr, ptr, ...) @fprintf(ptr noundef %14, ptr noundef @.str, i64 noundef %15, i64 noundef %16) #12
  call void @graphviz_exit(i32 noundef 1) #13
  unreachable

18:                                               ; preds = %4
  %19 = load ptr, ptr %5, align 8, !tbaa !10
  %20 = load i64, ptr %6, align 8, !tbaa !11
  %21 = load i64, ptr %8, align 8, !tbaa !11
  %22 = mul i64 %20, %21
  %23 = load i64, ptr %7, align 8, !tbaa !11
  %24 = load i64, ptr %8, align 8, !tbaa !11
  %25 = mul i64 %23, %24
  %26 = call ptr @gv_realloc(ptr noundef %19, i64 noundef %22, i64 noundef %25)
  ret ptr %26
}

; Function Attrs: nounwind uwtable
define internal void @insert(ptr noundef %0, ptr noundef byval(%struct.Pair) align 8 %1) #0 {
  %3 = alloca ptr, align 8
  %4 = alloca i64, align 8
  %5 = alloca i64, align 8
  %6 = alloca %struct.Pair, align 8
  store ptr %0, ptr %3, align 8, !tbaa !10
  call void @llvm.lifetime.start.p0(i64 8, ptr %4) #12
  %7 = load ptr, ptr %3, align 8, !tbaa !10
  %8 = getelementptr inbounds nuw %struct.PairHeap, ptr %7, i32 0, i32 1
  %9 = load i64, ptr %8, align 8, !tbaa !47
  store i64 %9, ptr %4, align 8, !tbaa !11
  %10 = load ptr, ptr %3, align 8, !tbaa !10
  %11 = getelementptr inbounds nuw %struct.PairHeap, ptr %10, i32 0, i32 1
  %12 = load i64, ptr %11, align 8, !tbaa !47
  %13 = load ptr, ptr %3, align 8, !tbaa !10
  %14 = getelementptr inbounds nuw %struct.PairHeap, ptr %13, i32 0, i32 2
  %15 = load i64, ptr %14, align 8, !tbaa !49
  %16 = icmp eq i64 %12, %15
  br i1 %16, label %17, label %35

17:                                               ; preds = %2
  call void @llvm.lifetime.start.p0(i64 8, ptr %5) #12
  %18 = load ptr, ptr %3, align 8, !tbaa !10
  %19 = getelementptr inbounds nuw %struct.PairHeap, ptr %18, i32 0, i32 2
  %20 = load i64, ptr %19, align 8, !tbaa !49
  %21 = mul i64 %20, 2
  store i64 %21, ptr %5, align 8, !tbaa !11
  %22 = load ptr, ptr %3, align 8, !tbaa !10
  %23 = getelementptr inbounds nuw %struct.PairHeap, ptr %22, i32 0, i32 0
  %24 = load ptr, ptr %23, align 8, !tbaa !50
  %25 = load ptr, ptr %3, align 8, !tbaa !10
  %26 = getelementptr inbounds nuw %struct.PairHeap, ptr %25, i32 0, i32 2
  %27 = load i64, ptr %26, align 8, !tbaa !49
  %28 = load i64, ptr %5, align 8, !tbaa !11
  %29 = call ptr @gv_recalloc(ptr noundef %24, i64 noundef %27, i64 noundef %28, i64 noundef 24)
  %30 = load ptr, ptr %3, align 8, !tbaa !10
  %31 = getelementptr inbounds nuw %struct.PairHeap, ptr %30, i32 0, i32 0
  store ptr %29, ptr %31, align 8, !tbaa !50
  %32 = load i64, ptr %5, align 8, !tbaa !11
  %33 = load ptr, ptr %3, align 8, !tbaa !10
  %34 = getelementptr inbounds nuw %struct.PairHeap, ptr %33, i32 0, i32 2
  store i64 %32, ptr %34, align 8, !tbaa !49
  call void @llvm.lifetime.end.p0(i64 8, ptr %5) #12
  br label %35

35:                                               ; preds = %17, %2
  %36 = load ptr, ptr %3, align 8, !tbaa !10
  %37 = getelementptr inbounds nuw %struct.PairHeap, ptr %36, i32 0, i32 1
  %38 = load i64, ptr %37, align 8, !tbaa !47
  %39 = add i64 %38, 1
  store i64 %39, ptr %37, align 8, !tbaa !47
  %40 = load ptr, ptr %3, align 8, !tbaa !10
  %41 = getelementptr inbounds nuw %struct.PairHeap, ptr %40, i32 0, i32 0
  %42 = load ptr, ptr %41, align 8, !tbaa !50
  %43 = load i64, ptr %4, align 8, !tbaa !11
  %44 = getelementptr inbounds nuw %struct.Pair, ptr %42, i64 %43
  call void @llvm.memcpy.p0.p0.i64(ptr align 8 %44, ptr align 8 %1, i64 24, i1 false), !tbaa.struct !32
  br label %45

45:                                               ; preds = %92, %35
  %46 = load i64, ptr %4, align 8, !tbaa !11
  %47 = icmp ugt i64 %46, 0
  br i1 %47, label %48, label %90

48:                                               ; preds = %45
  %49 = load ptr, ptr %3, align 8, !tbaa !10
  %50 = getelementptr inbounds nuw %struct.PairHeap, ptr %49, i32 0, i32 0
  %51 = load ptr, ptr %50, align 8, !tbaa !50
  %52 = load i64, ptr %4, align 8, !tbaa !11
  %53 = getelementptr inbounds nuw %struct.Pair, ptr %51, i64 %52
  %54 = getelementptr inbounds nuw %struct.Pair, ptr %53, i32 0, i32 2
  %55 = load double, ptr %54, align 8, !tbaa !25
  %56 = load ptr, ptr %3, align 8, !tbaa !10
  %57 = getelementptr inbounds nuw %struct.PairHeap, ptr %56, i32 0, i32 0
  %58 = load ptr, ptr %57, align 8, !tbaa !50
  %59 = load i64, ptr %4, align 8, !tbaa !11
  %60 = udiv i64 %59, 2
  %61 = getelementptr inbounds nuw %struct.Pair, ptr %58, i64 %60
  %62 = getelementptr inbounds nuw %struct.Pair, ptr %61, i32 0, i32 2
  %63 = load double, ptr %62, align 8, !tbaa !25
  %64 = fcmp olt double %55, %63
  br i1 %64, label %88, label %65

65:                                               ; preds = %48
  %66 = load ptr, ptr %3, align 8, !tbaa !10
  %67 = getelementptr inbounds nuw %struct.PairHeap, ptr %66, i32 0, i32 0
  %68 = load ptr, ptr %67, align 8, !tbaa !50
  %69 = load i64, ptr %4, align 8, !tbaa !11
  %70 = getelementptr inbounds nuw %struct.Pair, ptr %68, i64 %69
  %71 = getelementptr inbounds nuw %struct.Pair, ptr %70, i32 0, i32 2
  %72 = load double, ptr %71, align 8, !tbaa !25
  %73 = load ptr, ptr %3, align 8, !tbaa !10
  %74 = getelementptr inbounds nuw %struct.PairHeap, ptr %73, i32 0, i32 0
  %75 = load ptr, ptr %74, align 8, !tbaa !50
  %76 = load i64, ptr %4, align 8, !tbaa !11
  %77 = udiv i64 %76, 2
  %78 = getelementptr inbounds nuw %struct.Pair, ptr %75, i64 %77
  %79 = getelementptr inbounds nuw %struct.Pair, ptr %78, i32 0, i32 2
  %80 = load double, ptr %79, align 8, !tbaa !25
  %81 = fcmp oeq double %72, %80
  br i1 %81, label %82, label %86

82:                                               ; preds = %65
  %83 = call i32 @rand() #12
  %84 = srem i32 %83, 2
  %85 = icmp ne i32 %84, 0
  br label %86

86:                                               ; preds = %82, %65
  %87 = phi i1 [ false, %65 ], [ %85, %82 ]
  br label %88

88:                                               ; preds = %86, %48
  %89 = phi i1 [ true, %48 ], [ %87, %86 ]
  br label %90

90:                                               ; preds = %88, %45
  %91 = phi i1 [ false, %45 ], [ %89, %88 ]
  br i1 %91, label %92, label %117

92:                                               ; preds = %90
  call void @llvm.lifetime.start.p0(i64 24, ptr %6) #12
  %93 = load ptr, ptr %3, align 8, !tbaa !10
  %94 = getelementptr inbounds nuw %struct.PairHeap, ptr %93, i32 0, i32 0
  %95 = load ptr, ptr %94, align 8, !tbaa !50
  %96 = load i64, ptr %4, align 8, !tbaa !11
  %97 = getelementptr inbounds nuw %struct.Pair, ptr %95, i64 %96
  call void @llvm.memcpy.p0.p0.i64(ptr align 8 %6, ptr align 8 %97, i64 24, i1 false), !tbaa.struct !32
  %98 = load ptr, ptr %3, align 8, !tbaa !10
  %99 = getelementptr inbounds nuw %struct.PairHeap, ptr %98, i32 0, i32 0
  %100 = load ptr, ptr %99, align 8, !tbaa !50
  %101 = load i64, ptr %4, align 8, !tbaa !11
  %102 = getelementptr inbounds nuw %struct.Pair, ptr %100, i64 %101
  %103 = load ptr, ptr %3, align 8, !tbaa !10
  %104 = getelementptr inbounds nuw %struct.PairHeap, ptr %103, i32 0, i32 0
  %105 = load ptr, ptr %104, align 8, !tbaa !50
  %106 = load i64, ptr %4, align 8, !tbaa !11
  %107 = udiv i64 %106, 2
  %108 = getelementptr inbounds nuw %struct.Pair, ptr %105, i64 %107
  call void @llvm.memcpy.p0.p0.i64(ptr align 8 %102, ptr align 8 %108, i64 24, i1 false), !tbaa.struct !32
  %109 = load ptr, ptr %3, align 8, !tbaa !10
  %110 = getelementptr inbounds nuw %struct.PairHeap, ptr %109, i32 0, i32 0
  %111 = load ptr, ptr %110, align 8, !tbaa !50
  %112 = load i64, ptr %4, align 8, !tbaa !11
  %113 = udiv i64 %112, 2
  %114 = getelementptr inbounds nuw %struct.Pair, ptr %111, i64 %113
  call void @llvm.memcpy.p0.p0.i64(ptr align 8 %114, ptr align 8 %6, i64 24, i1 false), !tbaa.struct !32
  call void @llvm.lifetime.end.p0(i64 24, ptr %6) #12
  %115 = load i64, ptr %4, align 8, !tbaa !11
  %116 = udiv i64 %115, 2
  store i64 %116, ptr %4, align 8, !tbaa !11
  br label %45, !llvm.loop !53

117:                                              ; preds = %90
  call void @llvm.lifetime.end.p0(i64 8, ptr %4) #12
  ret void
}