; Function Attrs: nounwind uwtable
define internal fastcc void @insert(ptr noundef nonnull captures(none) %0, ptr noundef readonly byval(%struct.Pair) align 8 captures(none) %1) unnamed_addr #0 {
  %3 = alloca %struct.Pair, align 8
  %4 = getelementptr inbounds nuw i8, ptr %0, i64 8
  %5 = load i64, ptr %4, align 8, !tbaa !15
  %6 = getelementptr inbounds nuw i8, ptr %0, i64 16
  %7 = load i64, ptr %6, align 8, !tbaa !16
  %8 = icmp eq i64 %5, %7
  %.pre40 = load ptr, ptr %0, align 8, !tbaa !9
  br i1 %8, label %9, label %30

9:                                                ; preds = %2
  %10 = shl i64 %5, 1
  %11 = icmp ugt i64 %10, 768614336404564650
  br i1 %11, label %12, label %15

12:                                               ; preds = %9
  %13 = load ptr, ptr @stderr, align 8, !tbaa !3
  %14 = tail call i32 (ptr, ptr, ...) @fprintf(ptr noundef %13, ptr noundef nonnull @.str, i64 noundef %10, i64 noundef 24) #16
  tail call fastcc void @graphviz_exit() #17
  unreachable

15:                                               ; preds = %9
  %16 = mul i64 %5, 24
  %17 = mul i64 %5, 48
  %18 = icmp eq i64 %10, 0
  br i1 %18, label %19, label %20

19:                                               ; preds = %15
  tail call void @free(ptr noundef %.pre40) #15
  br label %gv_recalloc.exit

20:                                               ; preds = %15
  %21 = tail call ptr @realloc(ptr noundef %.pre40, i64 noundef range(i64 0, -15) %17) #19
  %22 = icmp eq ptr %21, null
  br i1 %22, label %23, label %26

23:                                               ; preds = %20
  %24 = load ptr, ptr @stderr, align 8, !tbaa !3
  %25 = tail call i32 (ptr, ptr, ...) @fprintf(ptr noundef %24, ptr noundef nonnull @.str.1, i64 noundef range(i64 0, -15) %17) #16
  tail call fastcc void @graphviz_exit() #17
  unreachable

26:                                               ; preds = %20
  %27 = icmp ugt i64 %17, %16
  br i1 %27, label %28, label %gv_recalloc.exit

28:                                               ; preds = %26
  %29 = getelementptr inbounds nuw i8, ptr %21, i64 %16
  tail call void @llvm.memset.p0.i64(ptr nonnull align 1 %29, i8 0, i64 %16, i1 false)
  br label %gv_recalloc.exit

gv_recalloc.exit:                                 ; preds = %19, %26, %28
  %.0.i.i = phi ptr [ null, %19 ], [ %21, %28 ], [ %21, %26 ]
  store ptr %.0.i.i, ptr %0, align 8, !tbaa !9
  store i64 %10, ptr %6, align 8, !tbaa !16
  %.pre = load i64, ptr %4, align 8, !tbaa !15
  br label %30

30:                                               ; preds = %gv_recalloc.exit, %2
  %31 = phi ptr [ %.0.i.i, %gv_recalloc.exit ], [ %.pre40, %2 ]
  %32 = phi i64 [ %.pre, %gv_recalloc.exit ], [ %5, %2 ]
  %33 = add i64 %32, 1
  store i64 %33, ptr %4, align 8, !tbaa !15
  %34 = getelementptr inbounds nuw %struct.Pair, ptr %31, i64 %5
  call void @llvm.memcpy.p0.p0.i64(ptr noundef nonnull align 8 dereferenceable(24) %34, ptr noundef nonnull align 8 dereferenceable(24) %1, i64 24, i1 false), !tbaa.struct !22
  %.not36 = icmp eq i64 %5, 0
  br i1 %.not36, label %.critedge, label %.lr.ph

.lr.ph:                                           ; preds = %30, %.critedge2
  %.037 = phi i64 [ %38, %.critedge2 ], [ %5, %30 ]
  %35 = load ptr, ptr %0, align 8, !tbaa !9
  %36 = getelementptr inbounds nuw %struct.Pair, ptr %35, i64 %.037, i32 2
  %37 = load double, ptr %36, align 8, !tbaa !20
  %38 = lshr i64 %.037, 1
  %39 = getelementptr inbounds nuw %struct.Pair, ptr %35, i64 %38, i32 2
  %40 = load double, ptr %39, align 8, !tbaa !20
  %41 = fcmp olt double %37, %40
  br i1 %41, label %.critedge2, label %42

42:                                               ; preds = %.lr.ph
  %43 = fcmp oeq double %37, %40
  br i1 %43, label %44, label %.critedge

44:                                               ; preds = %42
  %45 = tail call i32 @rand() #15
  %46 = and i32 %45, 1
  %.not35 = icmp eq i32 %46, 0
  br i1 %.not35, label %.critedge, label %..critedge2_crit_edge

..critedge2_crit_edge:                            ; preds = %44
  %.pre41 = load ptr, ptr %0, align 8, !tbaa !9
  br label %.critedge2

.critedge2:                                       ; preds = %..critedge2_crit_edge, %.lr.ph
  %47 = phi ptr [ %.pre41, %..critedge2_crit_edge ], [ %35, %.lr.ph ]
  call void @llvm.lifetime.start.p0(i64 24, ptr nonnull %3)
  %48 = getelementptr inbounds nuw %struct.Pair, ptr %47, i64 %.037
  call void @llvm.memcpy.p0.p0.i64(ptr noundef nonnull align 8 dereferenceable(24) %3, ptr noundef nonnull align 8 dereferenceable(24) %48, i64 24, i1 false), !tbaa.struct !22
  %49 = getelementptr inbounds nuw %struct.Pair, ptr %47, i64 %38
  tail call void @llvm.memcpy.p0.p0.i64(ptr noundef nonnull align 8 dereferenceable(24) %48, ptr noundef nonnull align 8 dereferenceable(24) %49, i64 24, i1 false), !tbaa.struct !22
  %50 = load ptr, ptr %0, align 8, !tbaa !9
  %51 = getelementptr inbounds nuw %struct.Pair, ptr %50, i64 %38
  call void @llvm.memcpy.p0.p0.i64(ptr noundef nonnull align 8 dereferenceable(24) %51, ptr noundef nonnull align 8 dereferenceable(24) %3, i64 24, i1 false), !tbaa.struct !22
  call void @llvm.lifetime.end.p0(i64 24, ptr nonnull %3)
  %.not = icmp ult i64 %.037, 2
  br i1 %.not, label %.critedge, label %.lr.ph, !llvm.loop !46

.critedge:                                        ; preds = %44, %42, %.critedge2, %30
  ret void
}